target datalayout = "e-m:e-p270:32:32-p271:32:32-p272:64:64-i64:64-i128:128-f80:128-n8:16:32:64-S128"
target triple = "x86_64-pc-linux-gnu"

%struct.SurfaceDataRasInfo = type { %struct.SurfaceDataBounds, ptr, i32, i32, i32, i32, ptr, ptr, ptr, ptr, ptr, ptr, i32, %union.anon.0 }
%struct.SurfaceDataBounds = type { i32, i32, i32, i32 }
%union.anon.0 = type { ptr, [56 x i8] }

@mul8table = external global [256 x [256 x i8]], align 16
@div8table = external global [256 x [256 x i8]], align 16

; Function Attrs: nounwind uwtable
define hidden void @IntRgbSrcMaskFill(ptr noundef %0, ptr noundef %1, i32 noundef %2, i32 noundef %3, i32 noundef %4, i32 noundef %5, i32 noundef %6, ptr noundef %7, ptr noundef %8, ptr noundef %9) #1 {
  %11 = alloca ptr, align 8
  %12 = alloca ptr, align 8
  %13 = alloca i32, align 4
  %14 = alloca i32, align 4
  %15 = alloca i32, align 4
  %16 = alloca i32, align 4
  %17 = alloca i32, align 4
  %18 = alloca ptr, align 8
  %19 = alloca ptr, align 8
  %20 = alloca ptr, align 8
  %21 = alloca i32, align 4
  %22 = alloca i32, align 4
  %23 = alloca i32, align 4
  %24 = alloca i32, align 4
  %25 = alloca i32, align 4
  %26 = alloca ptr, align 8
  %27 = alloca i32, align 4
  %28 = alloca i32, align 4
  %29 = alloca i32, align 4
  %30 = alloca i32, align 4
  %31 = alloca i32, align 4
  %32 = alloca i32, align 4
  %33 = alloca i32, align 4
  %34 = alloca i32, align 4
  %35 = alloca i32, align 4
  store ptr %0, ptr %11, align 8
  store ptr %1, ptr %12, align 8
  store i32 %2, ptr %13, align 4
  store i32 %3, ptr %14, align 4
  store i32 %4, ptr %15, align 4
  store i32 %5, ptr %16, align 4
  store i32 %6, ptr %17, align 4
  store ptr %7, ptr %18, align 8
  store ptr %8, ptr %19, align 8
  store ptr %9, ptr %20, align 8
  %36 = load ptr, ptr %18, align 8
  %37 = getelementptr inbounds %struct.SurfaceDataRasInfo, ptr %36, i32 0, i32 4
  %38 = load i32, ptr %37, align 8
  store i32 %38, ptr %25, align 4
  %39 = load ptr, ptr %11, align 8
  store ptr %39, ptr %26, align 8
  br label %40

40:                                               ; preds = %10
  %41 = load i32, ptr %17, align 4
  %42 = and i32 %41, 255
  store i32 %42, ptr %24, align 4
  %43 = load i32, ptr %17, align 4
  %44 = ashr i32 %43, 8
  %45 = and i32 %44, 255
  store i32 %45, ptr %23, align 4
  %46 = load i32, ptr %17, align 4
  %47 = ashr i32 %46, 16
  %48 = and i32 %47, 255
  store i32 %48, ptr %22, align 4
  %49 = load i32, ptr %17, align 4
  %50 = ashr i32 %49, 24
  %51 = and i32 %50, 255
  store i32 %51, ptr %21, align 4
  br label %52

52:                                               ; preds = %40
  %53 = load i32, ptr %21, align 4
  %54 = icmp eq i32 %53, 0
  br i1 %54, label %55, label %56

55:                                               ; preds = %52
  store i32 0, ptr %24, align 4
  store i32 0, ptr %23, align 4
  store i32 0, ptr %22, align 4
  store i32 0, ptr %17, align 4
  br label %87

56:                                               ; preds = %52
  %57 = load i32, ptr %21, align 4
  %58 = icmp ne i32 %57, 255
  br i1 %58, label %59, label %86

59:                                               ; preds = %56
  br label %60

60:                                               ; preds = %59
  %61 = load i32, ptr %21, align 4
  %62 = sext i32 %61 to i64
  %63 = getelementptr inbounds [256 x [256 x i8]], ptr @mul8table, i64 0, i64 %62
  %64 = load i32, ptr %22, align 4
  %65 = sext i32 %64 to i64
  %66 = getelementptr inbounds [256 x i8], ptr %63, i64 0, i64 %65
  %67 = load i8, ptr %66, align 1
  %68 = zext i8 %67 to i32
  store i32 %68, ptr %22, align 4
  %69 = load i32, ptr %21, align 4
  %70 = sext i32 %69 to i64
  %71 = getelementptr inbounds [256 x [256 x i8]], ptr @mul8table, i64 0, i64 %70
  %72 = load i32, ptr %23, align 4
  %73 = sext i32 %72 to i64
  %74 = getelementptr inbounds [256 x i8], ptr %71, i64 0, i64 %73
  %75 = load i8, ptr %74, align 1
  %76 = zext i8 %75 to i32
  store i32 %76, ptr %23, align 4
  %77 = load i32, ptr %21, align 4
  %78 = sext i32 %77 to i64
  %79 = getelementptr inbounds [256 x [256 x i8]], ptr @mul8table, i64 0, i64 %78
  %80 = load i32, ptr %24, align 4
  %81 = sext i32 %80 to i64
  %82 = getelementptr inbounds [256 x i8], ptr %79, i64 0, i64 %81
  %83 = load i8, ptr %82, align 1
  %84 = zext i8 %83 to i32
  store i32 %84, ptr %24, align 4
  br label %85

85:                                               ; preds = %60
  br label %86

86:                                               ; preds = %85, %56
  br label %87

87:                                               ; preds = %86, %55
  %88 = load i32, ptr %15, align 4
  %89 = mul nsw i32 %88, 4
  %90 = load i32, ptr %25, align 4
  %91 = sub nsw i32 %90, %89
  store i32 %91, ptr %25, align 4
  %92 = load ptr, ptr %12, align 8
  %93 = icmp ne ptr %92, null
  br i1 %93, label %94, label %278

94:                                               ; preds = %87
  %95 = load i32, ptr %13, align 4
  %96 = load ptr, ptr %12, align 8
  %97 = sext i32 %95 to i64
  %98 = getelementptr inbounds i8, ptr %96, i64 %97
  store ptr %98, ptr %12, align 8
  %99 = load i32, ptr %15, align 4
  %100 = load i32, ptr %14, align 4
  %101 = sub nsw i32 %100, %99
  store i32 %101, ptr %14, align 4
  br label %102

102:                                              ; preds = %273, %94
  %103 = load i32, ptr %15, align 4
  store i32 %103, ptr %27, align 4
  br label %104

104:                                              ; preds = %256, %102
  %105 = load ptr, ptr %12, align 8
  %106 = getelementptr inbounds i8, ptr %105, i32 1
  store ptr %106, ptr %12, align 8
  %107 = load i8, ptr %105, align 1
  %108 = zext i8 %107 to i32
  store i32 %108, ptr %33, align 4
  %109 = load i32, ptr %33, align 4
  %110 = icmp sgt i32 %109, 0
  br i1 %110, label %111, label %251

111:                                              ; preds = %104
  %112 = load i32, ptr %33, align 4
  %113 = icmp eq i32 %112, 255
  br i1 %113, label %114, label %118

114:                                              ; preds = %111
  %115 = load i32, ptr %17, align 4
  %116 = load ptr, ptr %26, align 8
  %117 = getelementptr inbounds i32, ptr %116, i64 0
  store i32 %115, ptr %117, align 4
  br label %250

118:                                              ; preds = %111
  %119 = load i32, ptr %33, align 4
  %120 = sub nsw i32 255, %119
  store i32 %120, ptr %32, align 4
  store i32 255, ptr %28, align 4
  %121 = load i32, ptr %32, align 4
  %122 = sext i32 %121 to i64
  %123 = getelementptr inbounds [256 x [256 x i8]], ptr @mul8table, i64 0, i64 %122
  %124 = load i32, ptr %28, align 4
  %125 = sext i32 %124 to i64
  %126 = getelementptr inbounds [256 x i8], ptr %123, i64 0, i64 %125
  %127 = load i8, ptr %126, align 1
  %128 = zext i8 %127 to i32
  store i32 %128, ptr %28, align 4
  %129 = load i32, ptr %28, align 4
  store i32 %129, ptr %32, align 4
  %130 = load i32, ptr %33, align 4
  %131 = sext i32 %130 to i64
  %132 = getelementptr inbounds [256 x [256 x i8]], ptr @mul8table, i64 0, i64 %131
  %133 = load i32, ptr %21, align 4
  %134 = sext i32 %133 to i64
  %135 = getelementptr inbounds [256 x i8], ptr %132, i64 0, i64 %134
  %136 = load i8, ptr %135, align 1
  %137 = zext i8 %136 to i32
  %138 = load i32, ptr %28, align 4
  %139 = add nsw i32 %138, %137
  store i32 %139, ptr %28, align 4
  br label %140

140:                                              ; preds = %118
  %141 = load ptr, ptr %26, align 8
  %142 = getelementptr inbounds i32, ptr %141, i64 0
  %143 = load i32, ptr %142, align 4
  store i32 %143, ptr %34, align 4
  br label %144

144:                                              ; preds = %140
  %145 = load i32, ptr %34, align 4
  %146 = and i32 %145, 255
  store i32 %146, ptr %31, align 4
  %147 = load i32, ptr %34, align 4
  %148 = ashr i32 %147, 8
  %149 = and i32 %148, 255
  store i32 %149, ptr %30, align 4
  %150 = load i32, ptr %34, align 4
  %151 = ashr i32 %150, 16
  %152 = and i32 %151, 255
  store i32 %152, ptr %29, align 4
  br label %153

153:                                              ; preds = %144
  br label %154

154:                                              ; preds = %153
  br label %155

155:                                              ; preds = %154
  %156 = load i32, ptr %32, align 4
  %157 = sext i32 %156 to i64
  %158 = getelementptr inbounds [256 x [256 x i8]], ptr @mul8table, i64 0, i64 %157
  %159 = load i32, ptr %29, align 4
  %160 = sext i32 %159 to i64
  %161 = getelementptr inbounds [256 x i8], ptr %158, i64 0, i64 %160
  %162 = load i8, ptr %161, align 1
  %163 = zext i8 %162 to i32
  %164 = load i32, ptr %33, align 4
  %165 = sext i32 %164 to i64
  %166 = getelementptr inbounds [256 x [256 x i8]], ptr @mul8table, i64 0, i64 %165
  %167 = load i32, ptr %22, align 4
  %168 = sext i32 %167 to i64
  %169 = getelementptr inbounds [256 x i8], ptr %166, i64 0, i64 %168
  %170 = load i8, ptr %169, align 1
  %171 = zext i8 %170 to i32
  %172 = add nsw i32 %163, %171
  store i32 %172, ptr %29, align 4
  %173 = load i32, ptr %32, align 4
  %174 = sext i32 %173 to i64
  %175 = getelementptr inbounds [256 x [256 x i8]], ptr @mul8table, i64 0, i64 %174
  %176 = load i32, ptr %30, align 4
  %177 = sext i32 %176 to i64
  %178 = getelementptr inbounds [256 x i8], ptr %175, i64 0, i64 %177
  %179 = load i8, ptr %178, align 1
  %180 = zext i8 %179 to i32
  %181 = load i32, ptr %33, align 4
  %182 = sext i32 %181 to i64
  %183 = getelementptr inbounds [256 x [256 x i8]], ptr @mul8table, i64 0, i64 %182
  %184 = load i32, ptr %23, align 4
  %185 = sext i32 %184 to i64
  %186 = getelementptr inbounds [256 x i8], ptr %183, i64 0, i64 %185
  %187 = load i8, ptr %186, align 1
  %188 = zext i8 %187 to i32
  %189 = add nsw i32 %180, %188
  store i32 %189, ptr %30, align 4
  %190 = load i32, ptr %32, align 4
  %191 = sext i32 %190 to i64
  %192 = getelementptr inbounds [256 x [256 x i8]], ptr @mul8table, i64 0, i64 %191
  %193 = load i32, ptr %31, align 4
  %194 = sext i32 %193 to i64
  %195 = getelementptr inbounds [256 x i8], ptr %192, i64 0, i64 %194
  %196 = load i8, ptr %195, align 1
  %197 = zext i8 %196 to i32
  %198 = load i32, ptr %33, align 4
  %199 = sext i32 %198 to i64
  %200 = getelementptr inbounds [256 x [256 x i8]], ptr @mul8table, i64 0, i64 %199
  %201 = load i32, ptr %24, align 4
  %202 = sext i32 %201 to i64
  %203 = getelementptr inbounds [256 x i8], ptr %200, i64 0, i64 %202
  %204 = load i8, ptr %203, align 1
  %205 = zext i8 %204 to i32
  %206 = add nsw i32 %197, %205
  store i32 %206, ptr %31, align 4
  br label %207

207:                                              ; preds = %155
  %208 = load i32, ptr %28, align 4
  %209 = icmp ne i32 %208, 0
  br i1 %209, label %210, label %240

210:                                              ; preds = %207
  %211 = load i32, ptr %28, align 4
  %212 = icmp slt i32 %211, 255
  br i1 %212, label %213, label %240

213:                                              ; preds = %210
  br label %214

214:                                              ; preds = %213
  %215 = load i32, ptr %28, align 4
  %216 = sext i32 %215 to i64
  %217 = getelementptr inbounds [256 x [256 x i8]], ptr @div8table, i64 0, i64 %216
  %218 = load i32, ptr %29, align 4
  %219 = sext i32 %218 to i64
  %220 = getelementptr inbounds [256 x i8], ptr %217, i64 0, i64 %219
  %221 = load i8, ptr %220, align 1
  %222 = zext i8 %221 to i32
  store i32 %222, ptr %29, align 4
  %223 = load i32, ptr %28, align 4
  %224 = sext i32 %223 to i64
  %225 = getelementptr inbounds [256 x [256 x i8]], ptr @div8table, i64 0, i64 %224
  %226 = load i32, ptr %30, align 4
  %227 = sext i32 %226 to i64
  %228 = getelementptr inbounds [256 x i8], ptr %225, i64 0, i64 %227
  %229 = load i8, ptr %228, align 1
  %230 = zext i8 %229 to i32
  store i32 %230, ptr %30, align 4
  %231 = load i32, ptr %28, align 4
  %232 = sext i32 %231 to i64
  %233 = getelementptr inbounds [256 x [256 x i8]], ptr @div8table, i64 0, i64 %232
  %234 = load i32, ptr %31, align 4
  %235 = sext i32 %234 to i64
  %236 = getelementptr inbounds [256 x i8], ptr %233, i64 0, i64 %235
  %237 = load i8, ptr %236, align 1
  %238 = zext i8 %237 to i32
  store i32 %238, ptr %31, align 4
  br label %239

239:                                              ; preds = %214
  br label %240

240:                                              ; preds = %239, %210, %207
  %241 = load i32, ptr %29, align 4
  %242 = shl i32 %241, 8
  %243 = load i32, ptr %30, align 4
  %244 = or i32 %242, %243
  %245 = shl i32 %244, 8
  %246 = load i32, ptr %31, align 4
  %247 = or i32 %245, %246
  %248 = load ptr, ptr %26, align 8
  %249 = getelementptr inbounds i32, ptr %248, i64 0
  store i32 %247, ptr %249, align 4
  br label %250

250:                                              ; preds = %240, %114
  br label %251

251:                                              ; preds = %250, %104
  %252 = load ptr, ptr %26, align 8
  %253 = ptrtoint ptr %252 to i64
  %254 = add nsw i64 %253, 4
  %255 = inttoptr i64 %254 to ptr
  store ptr %255, ptr %26, align 8
  br label %256

256:                                              ; preds = %251
  %257 = load i32, ptr %27, align 4
  %258 = add nsw i32 %257, -1
  store i32 %258, ptr %27, align 4
  %259 = icmp sgt i32 %258, 0
  br i1 %259, label %104, label %260, !llvm.loop !25

260:                                              ; preds = %256
  %261 = load ptr, ptr %26, align 8
  %262 = ptrtoint ptr %261 to i64
  %263 = load i32, ptr %25, align 4
  %264 = sext i32 %263 to i64
  %265 = add nsw i64 %262, %264
  %266 = inttoptr i64 %265 to ptr
  store ptr %266, ptr %26, align 8
  %267 = load ptr, ptr %12, align 8
  %268 = ptrtoint ptr %267 to i64
  %269 = load i32, ptr %14, align 4
  %270 = sext i32 %269 to i64
  %271 = add nsw i64 %268, %270
  %272 = inttoptr i64 %271 to ptr
  store ptr %272, ptr %12, align 8
  br label %273

273:                                              ; preds = %260
  %274 = load i32, ptr %16, align 4
  %275 = add nsw i32 %274, -1
  store i32 %275, ptr %16, align 4
  %276 = icmp sgt i32 %275, 0
  br i1 %276, label %102, label %277, !llvm.loop !26

277:                                              ; preds = %273
  br label %305

278:                                              ; preds = %87
  br label %279

279:                                              ; preds = %300, %278
  %280 = load i32, ptr %15, align 4
  store i32 %280, ptr %35, align 4
  br label %281

281:                                              ; preds = %289, %279
  %282 = load i32, ptr %17, align 4
  %283 = load ptr, ptr %26, align 8
  %284 = getelementptr inbounds i32, ptr %283, i64 0
  store i32 %282, ptr %284, align 4
  %285 = load ptr, ptr %26, align 8
  %286 = ptrtoint ptr %285 to i64
  %287 = add nsw i64 %286, 4
  %288 = inttoptr i64 %287 to ptr
  store ptr %288, ptr %26, align 8
  br label %289

289:                                              ; preds = %281
  %290 = load i32, ptr %35, align 4
  %291 = add nsw i32 %290, -1
  store i32 %291, ptr %35, align 4
  %292 = icmp sgt i32 %291, 0
  br i1 %292, label %281, label %293, !llvm.loop !27

293:                                              ; preds = %289
  %294 = load ptr, ptr %26, align 8
  %295 = ptrtoint ptr %294 to i64
  %296 = load i32, ptr %25, align 4
  %297 = sext i32 %296 to i64
  %298 = add nsw i64 %295, %297
  %299 = inttoptr i64 %298 to ptr
  store ptr %299, ptr %26, align 8
  br label %300

300:                                              ; preds = %293
  %301 = load i32, ptr %16, align 4
  %302 = add nsw i32 %301, -1
  store i32 %302, ptr %16, align 4
  %303 = icmp sgt i32 %302, 0
  br i1 %303, label %279, label %304, !llvm.loop !28

304:                                              ; preds = %300
  br label %305

305:                                              ; preds = %304, %277
  ret void
}