; Function Attrs: nofree norecurse nosync nounwind memory(readwrite, inaccessiblemem: none) uwtable
define hidden void @IntRgbSrcMaskFill(ptr noundef %0, ptr noundef %1, i32 noundef %2, i32 noundef %3, i32 noundef %4, i32 noundef %5, i32 noundef %6, ptr nocapture noundef readonly %7, ptr nocapture readnone %8, ptr nocapture readnone %9) #1 {
  %11 = getelementptr inbounds i8, ptr %7, i64 32
  %12 = load i32, ptr %11, align 8
  %13 = and i32 %6, 255
  %14 = lshr i32 %6, 8
  %15 = and i32 %14, 255
  %16 = lshr i32 %6, 16
  %17 = and i32 %16, 255
  %18 = lshr i32 %6, 24
  %19 = icmp ult i32 %6, 16777216
  br i1 %19, label %35, label %20

20:                                               ; preds = %10
  %.not = icmp eq i32 %18, 255
  br i1 %.not, label %35, label %21

21:                                               ; preds = %20
  %22 = zext nneg i32 %18 to i64
  %23 = zext nneg i32 %17 to i64
  %24 = getelementptr inbounds [256 x [256 x i8]], ptr @mul8table, i64 0, i64 %22, i64 %23
  %25 = load i8, ptr %24, align 1
  %26 = zext i8 %25 to i32
  %27 = zext nneg i32 %15 to i64
  %28 = getelementptr inbounds [256 x [256 x i8]], ptr @mul8table, i64 0, i64 %22, i64 %27
  %29 = load i8, ptr %28, align 1
  %30 = zext i8 %29 to i32
  %31 = zext nneg i32 %13 to i64
  %32 = getelementptr inbounds [256 x [256 x i8]], ptr @mul8table, i64 0, i64 %22, i64 %31
  %33 = load i8, ptr %32, align 1
  %34 = zext i8 %33 to i32
  br label %35

35:                                               ; preds = %10, %20, %21
  %.089 = phi i32 [ %6, %21 ], [ %6, %20 ], [ 0, %10 ]
  %.088 = phi i32 [ %26, %21 ], [ %17, %20 ], [ 0, %10 ]
  %.087 = phi i32 [ %30, %21 ], [ %15, %20 ], [ 0, %10 ]
  %.086 = phi i32 [ %34, %21 ], [ %13, %20 ], [ 0, %10 ]
  %36 = shl nsw i32 %4, 2
  %37 = sub nsw i32 %12, %36
  %.not97 = icmp eq ptr %1, null
  br i1 %.not97, label %.preheader, label %39

.preheader:                                       ; preds = %35
  %38 = sext i32 %37 to i64
  br label %129

39:                                               ; preds = %35
  %40 = sext i32 %2 to i64
  %41 = getelementptr inbounds i8, ptr %1, i64 %40
  %42 = sub nsw i32 %3, %4
  %43 = sext i32 %37 to i64
  %44 = zext nneg i32 %18 to i64
  %45 = zext nneg i32 %.088 to i64
  %46 = zext nneg i32 %.087 to i64
  %47 = zext nneg i32 %.086 to i64
  %48 = sext i32 %42 to i64
  br label %49

49:                                               ; preds = %121, %39
  %.084 = phi ptr [ %0, %39 ], [ %123, %121 ]
  %.078 = phi i32 [ %5, %39 ], [ %127, %121 ]
  %.077 = phi ptr [ %41, %39 ], [ %126, %121 ]
  br label %50

50:                                               ; preds = %115, %49
  %.185 = phi ptr [ %.084, %49 ], [ %118, %115 ]
  %.083 = phi i32 [ %4, %49 ], [ %119, %115 ]
  %.1 = phi ptr [ %.077, %49 ], [ %51, %115 ]
  %51 = getelementptr inbounds i8, ptr %.1, i64 1
  %52 = load i8, ptr %.1, align 1
  switch i8 %52, label %53 [
    i8 0, label %115
    i8 -1, label %.sink.split
  ]

53:                                               ; preds = %50
  %54 = xor i8 %52, -1
  %55 = zext i8 %54 to i64
  %56 = getelementptr inbounds [256 x [256 x i8]], ptr @mul8table, i64 0, i64 %55, i64 255
  %57 = load i8, ptr %56, align 1
  %58 = zext i8 %57 to i32
  %59 = zext i8 %52 to i64
  %60 = getelementptr inbounds [256 x [256 x i8]], ptr @mul8table, i64 0, i64 %59, i64 %44
  %61 = load i8, ptr %60, align 1
  %62 = zext i8 %61 to i32
  %63 = add nuw nsw i32 %62, %58
  %64 = load i32, ptr %.185, align 4
  %65 = and i32 %64, 255
  %66 = lshr i32 %64, 8
  %67 = and i32 %66, 255
  %68 = lshr i32 %64, 16
  %69 = and i32 %68, 255
  %70 = zext i8 %57 to i64
  %71 = zext nneg i32 %69 to i64
  %72 = getelementptr inbounds [256 x [256 x i8]], ptr @mul8table, i64 0, i64 %70, i64 %71
  %73 = load i8, ptr %72, align 1
  %74 = zext i8 %73 to i32
  %75 = getelementptr inbounds [256 x [256 x i8]], ptr @mul8table, i64 0, i64 %59, i64 %45
  %76 = load i8, ptr %75, align 1
  %77 = zext i8 %76 to i32
  %78 = add nuw nsw i32 %77, %74
  %79 = zext nneg i32 %67 to i64
  %80 = getelementptr inbounds [256 x [256 x i8]], ptr @mul8table, i64 0, i64 %70, i64 %79
  %81 = load i8, ptr %80, align 1
  %82 = zext i8 %81 to i32
  %83 = getelementptr inbounds [256 x [256 x i8]], ptr @mul8table, i64 0, i64 %59, i64 %46
  %84 = load i8, ptr %83, align 1
  %85 = zext i8 %84 to i32
  %86 = add nuw nsw i32 %85, %82
  %87 = zext nneg i32 %65 to i64
  %88 = getelementptr inbounds [256 x [256 x i8]], ptr @mul8table, i64 0, i64 %70, i64 %87
  %89 = load i8, ptr %88, align 1
  %90 = zext i8 %89 to i32
  %91 = getelementptr inbounds [256 x [256 x i8]], ptr @mul8table, i64 0, i64 %59, i64 %47
  %92 = load i8, ptr %91, align 1
  %93 = zext i8 %92 to i32
  %94 = add nuw nsw i32 %93, %90
  %95 = add nsw i32 %63, -1
  %or.cond = icmp ult i32 %95, 254
  br i1 %or.cond, label %96, label %110

96:                                               ; preds = %53
  %97 = zext nneg i32 %63 to i64
  %98 = zext nneg i32 %78 to i64
  %99 = getelementptr inbounds [256 x [256 x i8]], ptr @div8table, i64 0, i64 %97, i64 %98
  %100 = load i8, ptr %99, align 1
  %101 = zext i8 %100 to i32
  %102 = zext nneg i32 %86 to i64
  %103 = getelementptr inbounds [256 x [256 x i8]], ptr @div8table, i64 0, i64 %97, i64 %102
  %104 = load i8, ptr %103, align 1
  %105 = zext i8 %104 to i32
  %106 = zext nneg i32 %94 to i64
  %107 = getelementptr inbounds [256 x [256 x i8]], ptr @div8table, i64 0, i64 %97, i64 %106
  %108 = load i8, ptr %107, align 1
  %109 = zext i8 %108 to i32
  br label %110

110:                                              ; preds = %96, %53
  %.082 = phi i32 [ %101, %96 ], [ %78, %53 ]
  %.081 = phi i32 [ %105, %96 ], [ %86, %53 ]
  %.080 = phi i32 [ %109, %96 ], [ %94, %53 ]
  %111 = shl nuw nsw i32 %.082, 16
  %112 = shl nuw nsw i32 %.081, 8
  %113 = or i32 %112, %111
  %114 = or i32 %113, %.080
  br label %.sink.split

.sink.split:                                      ; preds = %50, %110
  %.089.sink = phi i32 [ %114, %110 ], [ %.089, %50 ]
  store i32 %.089.sink, ptr %.185, align 4
  br label %115

115:                                              ; preds = %.sink.split, %50
  %116 = ptrtoint ptr %.185 to i64
  %117 = add nsw i64 %116, 4
  %118 = inttoptr i64 %117 to ptr
  %119 = add nsw i32 %.083, -1
  %120 = icmp sgt i32 %.083, 1
  br i1 %120, label %50, label %121, !llvm.loop !25

121:                                              ; preds = %115
  %122 = add nsw i64 %117, %43
  %123 = inttoptr i64 %122 to ptr
  %124 = ptrtoint ptr %51 to i64
  %125 = add nsw i64 %124, %48
  %126 = inttoptr i64 %125 to ptr
  %127 = add nsw i32 %.078, -1
  %128 = icmp sgt i32 %.078, 1
  br i1 %128, label %49, label %.loopexit, !llvm.loop !26

129:                                              ; preds = %.preheader, %136
  %.2 = phi ptr [ %138, %136 ], [ %0, %.preheader ]
  %.179 = phi i32 [ %139, %136 ], [ %5, %.preheader ]
  br label %130

130:                                              ; preds = %130, %129
  %.3 = phi ptr [ %.2, %129 ], [ %133, %130 ]
  %.0 = phi i32 [ %4, %129 ], [ %134, %130 ]
  store i32 %.089, ptr %.3, align 4
  %131 = ptrtoint ptr %.3 to i64
  %132 = add nsw i64 %131, 4
  %133 = inttoptr i64 %132 to ptr
  %134 = add nsw i32 %.0, -1
  %135 = icmp sgt i32 %.0, 1
  br i1 %135, label %130, label %136, !llvm.loop !27

136:                                              ; preds = %130
  %137 = add nsw i64 %132, %38
  %138 = inttoptr i64 %137 to ptr
  %139 = add nsw i32 %.179, -1
  %140 = icmp sgt i32 %.179, 1
  br i1 %140, label %129, label %.loopexit, !llvm.loop !28

.loopexit:                                        ; preds = %121, %136
  ret void
}